target datalayout = "e-m:e-p270:32:32-p271:32:32-p272:64:64-i64:64-i128:128-f80:128-n8:16:32:64-S128"
target triple = "x86_64-pc-linux-gnu"

%union.SourceSpan = type { i64 }
%struct.Vmem = type { ptr, i64, i64 }
%struct.Ast_ = type { %union.SourceSpan, i32, i8, %union.anon.62 }
%union.anon.62 = type { %struct.AstDocDirective_ }
%struct.AstDocDirective_ = type { i8, %union.anon.65 }
%union.anon.65 = type { %struct.anon.66 }
%struct.anon.66 = type { ptr, %union.SourceSpan, i8 }
%struct.AstDeferStmt = type { i32, i32, i8 }

@ast_arena = external global %struct.Vmem, align 8

; Function Attrs: nounwind uwtable
define internal i32 @astid(ptr noundef %0) #0 {
  %2 = alloca ptr, align 8
  store ptr %0, ptr %2, align 8
  %3 = load ptr, ptr %2, align 8
  %4 = load ptr, ptr @ast_arena, align 8
  %5 = ptrtoint ptr %3 to i64
  %6 = ptrtoint ptr %4 to i64
  %7 = sub i64 %5, %6
  %8 = sdiv exact i64 %7, 48
  %9 = trunc i64 %8 to i32
  ret i32 %9
}

; Function Attrs: nounwind uwtable
define internal ptr @astptr(i32 noundef %0) #0 {
  %2 = alloca i32, align 4
  store i32 %0, ptr %2, align 4
  %3 = load ptr, ptr @ast_arena, align 8
  %4 = load i32, ptr %2, align 4
  %5 = zext i32 %4 to i64
  %6 = getelementptr inbounds %struct.Ast_, ptr %3, i64 %5
  ret ptr %6
}

; Function Attrs: nounwind uwtable
define dso_local i32 @context_get_defers(ptr noundef %0, i32 noundef %1, i32 noundef %2, i1 noundef zeroext %3) #0 {
  %5 = alloca ptr, align 8
  %6 = alloca i32, align 4
  %7 = alloca i32, align 4
  %8 = alloca i8, align 1
  %9 = alloca i32, align 4
  %10 = alloca ptr, align 8
  %11 = alloca ptr, align 8
  %12 = alloca ptr, align 8
  store ptr %0, ptr %5, align 8
  store i32 %1, ptr %6, align 4
  store i32 %2, ptr %7, align 4
  %13 = zext i1 %3 to i8
  store i8 %13, ptr %8, align 1
  store i32 0, ptr %9, align 4
  store ptr %9, ptr %10, align 8
  br label %14

14:                                               ; preds = %46, %41, %4
  %15 = load i32, ptr %7, align 4
  %16 = load i32, ptr %6, align 4
  %17 = icmp ne i32 %15, %16
  br i1 %17, label %18, label %62

18:                                               ; preds = %14
  %19 = load i32, ptr %6, align 4
  %20 = call ptr @astptr(i32 noundef %19)
  store ptr %20, ptr %11, align 8
  %21 = load i8, ptr %8, align 1
  %22 = trunc i8 %21 to i1
  br i1 %22, label %23, label %31

23:                                               ; preds = %18
  %24 = load ptr, ptr %11, align 8
  %25 = getelementptr inbounds %struct.Ast_, ptr %24, i32 0, i32 3
  %26 = getelementptr inbounds %struct.AstDeferStmt, ptr %25, i32 0, i32 2
  %27 = load i8, ptr %26, align 8
  %28 = lshr i8 %27, 1
  %29 = and i8 %28, 1
  %30 = trunc i8 %29 to i1
  br i1 %30, label %41, label %31

31:                                               ; preds = %23, %18
  %32 = load i8, ptr %8, align 1
  %33 = trunc i8 %32 to i1
  br i1 %33, label %46, label %34

34:                                               ; preds = %31
  %35 = load ptr, ptr %11, align 8
  %36 = getelementptr inbounds %struct.Ast_, ptr %35, i32 0, i32 3
  %37 = getelementptr inbounds %struct.AstDeferStmt, ptr %36, i32 0, i32 2
  %38 = load i8, ptr %37, align 8
  %39 = and i8 %38, 1
  %40 = trunc i8 %39 to i1
  br i1 %40, label %41, label %46

41:                                               ; preds = %34, %23
  %42 = load ptr, ptr %11, align 8
  %43 = getelementptr inbounds %struct.Ast_, ptr %42, i32 0, i32 3
  %44 = getelementptr inbounds %struct.AstDeferStmt, ptr %43, i32 0, i32 0
  %45 = load i32, ptr %44, align 8
  store i32 %45, ptr %6, align 4
  br label %14, !llvm.loop !7

46:                                               ; preds = %34, %31
  %47 = load ptr, ptr %11, align 8
  %48 = getelementptr inbounds %struct.Ast_, ptr %47, i32 0, i32 3
  %49 = getelementptr inbounds %struct.AstDeferStmt, ptr %48, i32 0, i32 1
  %50 = load i32, ptr %49, align 4
  %51 = call ptr @astptr(i32 noundef %50)
  %52 = call ptr @copy_ast_defer(ptr noundef %51)
  store ptr %52, ptr %12, align 8
  %53 = load ptr, ptr %12, align 8
  %54 = call i32 @astid(ptr noundef %53)
  %55 = load ptr, ptr %10, align 8
  store i32 %54, ptr %55, align 4
  %56 = load ptr, ptr %12, align 8
  %57 = getelementptr inbounds %struct.Ast_, ptr %56, i32 0, i32 1
  store ptr %57, ptr %10, align 8
  %58 = load ptr, ptr %11, align 8
  %59 = getelementptr inbounds %struct.Ast_, ptr %58, i32 0, i32 3
  %60 = getelementptr inbounds %struct.AstDeferStmt, ptr %59, i32 0, i32 0
  %61 = load i32, ptr %60, align 8
  store i32 %61, ptr %6, align 4
  br label %14, !llvm.loop !7

62:                                               ; preds = %14
  %63 = load i32, ptr %9, align 4
  ret i32 %63
}