; Function Attrs: nounwind uwtable
define dso_local i32 @context_get_defers(ptr nocapture noundef readnone %0, i32 noundef %1, i32 noundef %2, i1 noundef zeroext %3) local_unnamed_addr #0 {
  %5 = alloca i32, align 4
  store i32 0, ptr %5, align 4
  %.not1519 = icmp eq i32 %1, %2
  br i1 %.not1519, label %.outer._crit_edge, label %.lr.ph.lr.ph

.lr.ph.lr.ph:                                     ; preds = %4
  %.pre28 = load ptr, ptr @ast_arena, align 8
  br i1 %3, label %.lr.ph.us, label %.lr.ph

.lr.ph.us:                                        ; preds = %.lr.ph.lr.ph, %.split.us.us
  %6 = phi ptr [ %21, %.split.us.us ], [ %.pre28, %.lr.ph.lr.ph ]
  %.0.ph21.us = phi i32 [ %28, %.split.us.us ], [ %1, %.lr.ph.lr.ph ]
  %.012.ph20.us = phi ptr [ %27, %.split.us.us ], [ %5, %.lr.ph.lr.ph ]
  br label %7

7:                                                ; preds = %14, %.lr.ph.us
  %.016.us.us = phi i32 [ %.0.ph21.us, %.lr.ph.us ], [ %15, %14 ]
  %8 = zext i32 %.016.us.us to i64
  %9 = getelementptr inbounds %struct.Ast_, ptr %6, i64 %8
  %10 = getelementptr inbounds i8, ptr %9, i64 24
  %11 = load i8, ptr %10, align 8
  %12 = and i8 %11, 2
  %.not13.us.us = icmp eq i8 %12, 0
  %13 = getelementptr inbounds i8, ptr %9, i64 16
  br i1 %.not13.us.us, label %.split.us.us, label %14

14:                                               ; preds = %7
  %15 = load i32, ptr %13, align 8
  %.not.us.us = icmp eq i32 %15, %2
  br i1 %.not.us.us, label %.outer._crit_edge, label %7, !llvm.loop !7

.split.us.us:                                     ; preds = %7
  %16 = getelementptr inbounds i8, ptr %9, i64 20
  %17 = load i32, ptr %16, align 4
  %18 = zext i32 %17 to i64
  %19 = getelementptr inbounds %struct.Ast_, ptr %6, i64 %18
  %20 = tail call ptr @copy_ast_defer(ptr noundef %19) #10
  %21 = load ptr, ptr @ast_arena, align 8
  %22 = ptrtoint ptr %20 to i64
  %23 = ptrtoint ptr %21 to i64
  %24 = sub i64 %22, %23
  %25 = sdiv exact i64 %24, 48
  %26 = trunc i64 %25 to i32
  store i32 %26, ptr %.012.ph20.us, align 4
  %27 = getelementptr inbounds i8, ptr %20, i64 8
  %28 = load i32, ptr %13, align 8
  %.not15.us = icmp eq i32 %28, %2
  br i1 %.not15.us, label %.outer._crit_edge, label %.lr.ph.us, !llvm.loop !7

.lr.ph:                                           ; preds = %.lr.ph.lr.ph, %.split
  %29 = phi ptr [ %43, %.split ], [ %.pre28, %.lr.ph.lr.ph ]
  %.0.ph21 = phi i32 [ %50, %.split ], [ %1, %.lr.ph.lr.ph ]
  %.012.ph20 = phi ptr [ %49, %.split ], [ %5, %.lr.ph.lr.ph ]
  br label %.critedge

.critedge:                                        ; preds = %.lr.ph, %36
  %.016 = phi i32 [ %.0.ph21, %.lr.ph ], [ %37, %36 ]
  %30 = zext i32 %.016 to i64
  %31 = getelementptr inbounds %struct.Ast_, ptr %29, i64 %30
  %32 = getelementptr inbounds i8, ptr %31, i64 24
  %33 = load i8, ptr %32, align 8
  %34 = trunc i8 %33 to i1
  %35 = getelementptr inbounds i8, ptr %31, i64 16
  br i1 %34, label %36, label %.split

36:                                               ; preds = %.critedge
  %37 = load i32, ptr %35, align 8
  %.not = icmp eq i32 %37, %2
  br i1 %.not, label %.outer._crit_edge, label %.critedge, !llvm.loop !7

.split:                                           ; preds = %.critedge
  %38 = getelementptr inbounds i8, ptr %31, i64 20
  %39 = load i32, ptr %38, align 4
  %40 = zext i32 %39 to i64
  %41 = getelementptr inbounds %struct.Ast_, ptr %29, i64 %40
  %42 = tail call ptr @copy_ast_defer(ptr noundef %41) #10
  %43 = load ptr, ptr @ast_arena, align 8
  %44 = ptrtoint ptr %42 to i64
  %45 = ptrtoint ptr %43 to i64
  %46 = sub i64 %44, %45
  %47 = sdiv exact i64 %46, 48
  %48 = trunc i64 %47 to i32
  store i32 %48, ptr %.012.ph20, align 4
  %49 = getelementptr inbounds i8, ptr %42, i64 8
  %50 = load i32, ptr %35, align 8
  %.not15 = icmp eq i32 %50, %2
  br i1 %.not15, label %.outer._crit_edge, label %.lr.ph, !llvm.loop !7

.outer._crit_edge:                                ; preds = %.split, %36, %.split.us.us, %14, %4
  %.0..0..0..0. = load i32, ptr %5, align 4
  ret i32 %.0..0..0..0.
}